target datalayout = "e-m:e-p270:32:32-p271:32:32-p272:64:64-i64:64-i128:128-f80:128-n8:16:32:64-S128"
target triple = "x86_64-pc-linux-gnu"

; Function Attrs: nounwind uwtable
define dso_local void @gpu_common_parse_gpu_freq(ptr noundef %0, ptr noundef %1, ptr noundef %2, ptr noundef %3) #0 {
  %5 = alloca ptr, align 8
  %6 = alloca ptr, align 8
  %7 = alloca ptr, align 8
  %8 = alloca ptr, align 8
  %9 = alloca i32, align 4
  %10 = alloca i32, align 4
  %11 = alloca i32, align 4
  %12 = alloca i32, align 4
  %13 = alloca i32, align 4
  %14 = alloca i32, align 4
  %15 = alloca i32, align 4
  %16 = alloca i32, align 4
  %17 = alloca ptr, align 8
  store ptr %0, ptr %5, align 8
  store ptr %1, ptr %6, align 8
  store ptr %2, ptr %7, align 8
  store ptr %3, ptr %8, align 8
  call void @llvm.lifetime.start.p0(i64 4, ptr %9) #6
  store i32 0, ptr %9, align 4
  call void @llvm.lifetime.start.p0(i64 4, ptr %10) #6
  store i32 0, ptr %10, align 4
  call void @llvm.lifetime.start.p0(i64 4, ptr %11) #6
  store i32 0, ptr %11, align 4
  call void @llvm.lifetime.start.p0(i64 4, ptr %12) #6
  store i32 0, ptr %12, align 4
  call void @llvm.lifetime.start.p0(i64 4, ptr %13) #6
  store i32 0, ptr %13, align 4
  call void @llvm.lifetime.start.p0(i64 4, ptr %14) #6
  store i32 0, ptr %14, align 4
  call void @llvm.lifetime.start.p0(i64 4, ptr %15) #6
  store i32 0, ptr %15, align 4
  call void @llvm.lifetime.start.p0(i64 4, ptr %16) #6
  store i32 0, ptr %16, align 4
  call void @llvm.lifetime.start.p0(i64 8, ptr %17) #6
  %18 = load ptr, ptr %5, align 8
  %19 = load ptr, ptr %8, align 8
  call void @_parse_gpu_freq2(ptr noundef %18, ptr noundef %13, ptr noundef %14, ptr noundef %15, ptr noundef %16, ptr noundef %19)
  %20 = call ptr @slurm_get_gpu_freq_def()
  store ptr %20, ptr %17, align 8
  %21 = load ptr, ptr %17, align 8
  %22 = load ptr, ptr %8, align 8
  call void @_parse_gpu_freq2(ptr noundef %21, ptr noundef %9, ptr noundef %10, ptr noundef %11, ptr noundef %12, ptr noundef %22)
  call void @slurm_xfree(ptr noundef %17)
  %23 = load i32, ptr %13, align 4
  %24 = icmp ne i32 %23, 0
  br i1 %24, label %25, label %28

25:                                               ; preds = %4
  %26 = load i32, ptr %13, align 4
  %27 = load ptr, ptr %6, align 8
  store i32 %26, ptr %27, align 4
  br label %49

28:                                               ; preds = %4
  %29 = load i32, ptr %14, align 4
  %30 = icmp ne i32 %29, 0
  br i1 %30, label %31, label %34

31:                                               ; preds = %28
  %32 = load i32, ptr %14, align 4
  %33 = load ptr, ptr %6, align 8
  store i32 %32, ptr %33, align 4
  br label %48

34:                                               ; preds = %28
  %35 = load i32, ptr %9, align 4
  %36 = icmp ne i32 %35, 0
  br i1 %36, label %37, label %40

37:                                               ; preds = %34
  %38 = load i32, ptr %9, align 4
  %39 = load ptr, ptr %6, align 8
  store i32 %38, ptr %39, align 4
  br label %47

40:                                               ; preds = %34
  %41 = load i32, ptr %10, align 4
  %42 = icmp ne i32 %41, 0
  br i1 %42, label %43, label %46

43:                                               ; preds = %40
  %44 = load i32, ptr %10, align 4
  %45 = load ptr, ptr %6, align 8
  store i32 %44, ptr %45, align 4
  br label %46

46:                                               ; preds = %43, %40
  br label %47

47:                                               ; preds = %46, %37
  br label %48

48:                                               ; preds = %47, %31
  br label %49

49:                                               ; preds = %48, %25
  %50 = load i32, ptr %15, align 4
  %51 = icmp ne i32 %50, 0
  br i1 %51, label %52, label %55

52:                                               ; preds = %49
  %53 = load i32, ptr %15, align 4
  %54 = load ptr, ptr %7, align 8
  store i32 %53, ptr %54, align 4
  br label %76

55:                                               ; preds = %49
  %56 = load i32, ptr %16, align 4
  %57 = icmp ne i32 %56, 0
  br i1 %57, label %58, label %61

58:                                               ; preds = %55
  %59 = load i32, ptr %16, align 4
  %60 = load ptr, ptr %7, align 8
  store i32 %59, ptr %60, align 4
  br label %75

61:                                               ; preds = %55
  %62 = load i32, ptr %11, align 4
  %63 = icmp ne i32 %62, 0
  br i1 %63, label %64, label %67

64:                                               ; preds = %61
  %65 = load i32, ptr %11, align 4
  %66 = load ptr, ptr %7, align 8
  store i32 %65, ptr %66, align 4
  br label %74

67:                                               ; preds = %61
  %68 = load i32, ptr %12, align 4
  %69 = icmp ne i32 %68, 0
  br i1 %69, label %70, label %73

70:                                               ; preds = %67
  %71 = load i32, ptr %12, align 4
  %72 = load ptr, ptr %7, align 8
  store i32 %71, ptr %72, align 4
  br label %73

73:                                               ; preds = %70, %67
  br label %74

74:                                               ; preds = %73, %64
  br label %75

75:                                               ; preds = %74, %58
  br label %76

76:                                               ; preds = %75, %52
  call void @llvm.lifetime.end.p0(i64 8, ptr %17) #6
  call void @llvm.lifetime.end.p0(i64 4, ptr %16) #6
  call void @llvm.lifetime.end.p0(i64 4, ptr %15) #6
  call void @llvm.lifetime.end.p0(i64 4, ptr %14) #6
  call void @llvm.lifetime.end.p0(i64 4, ptr %13) #6
  call void @llvm.lifetime.end.p0(i64 4, ptr %12) #6
  call void @llvm.lifetime.end.p0(i64 4, ptr %11) #6
  call void @llvm.lifetime.end.p0(i64 4, ptr %10) #6
  call void @llvm.lifetime.end.p0(i64 4, ptr %9) #6
  ret void
}