; Function Attrs: nounwind uwtable
define dso_local void @gpu_common_parse_gpu_freq(ptr noundef %0, ptr noundef writeonly captures(none) %1, ptr noundef writeonly captures(none) %2, ptr noundef writeonly captures(none) %3) local_unnamed_addr #0 {
  %5 = alloca i32, align 4
  %6 = alloca i32, align 4
  %7 = alloca i32, align 4
  %8 = alloca i32, align 4
  %9 = alloca i32, align 4
  %10 = alloca i32, align 4
  %11 = alloca i32, align 4
  %12 = alloca i32, align 4
  %13 = alloca ptr, align 8
  call void @llvm.lifetime.start.p0(i64 4, ptr nonnull %5) #7
  store i32 0, ptr %5, align 4
  call void @llvm.lifetime.start.p0(i64 4, ptr nonnull %6) #7
  store i32 0, ptr %6, align 4
  call void @llvm.lifetime.start.p0(i64 4, ptr nonnull %7) #7
  store i32 0, ptr %7, align 4
  call void @llvm.lifetime.start.p0(i64 4, ptr nonnull %8) #7
  store i32 0, ptr %8, align 4
  call void @llvm.lifetime.start.p0(i64 4, ptr nonnull %9) #7
  store i32 0, ptr %9, align 4
  call void @llvm.lifetime.start.p0(i64 4, ptr nonnull %10) #7
  store i32 0, ptr %10, align 4
  call void @llvm.lifetime.start.p0(i64 4, ptr nonnull %11) #7
  store i32 0, ptr %11, align 4
  call void @llvm.lifetime.start.p0(i64 4, ptr nonnull %12) #7
  store i32 0, ptr %12, align 4
  call void @llvm.lifetime.start.p0(i64 8, ptr nonnull %13) #7
  call fastcc void @_parse_gpu_freq2(ptr noundef %0, ptr noundef %9, ptr noundef %10, ptr noundef %11, ptr noundef %12, ptr noundef %3)
  %14 = tail call ptr @slurm_get_gpu_freq_def() #7
  store ptr %14, ptr %13, align 8
  call fastcc void @_parse_gpu_freq2(ptr noundef %14, ptr noundef %5, ptr noundef %6, ptr noundef %7, ptr noundef %8, ptr noundef %3)
  call void @slurm_xfree(ptr noundef nonnull %13) #7
  %15 = load i32, ptr %9, align 4
  %.not = icmp eq i32 %15, 0
  br i1 %.not, label %16, label %.sink.split

16:                                               ; preds = %4
  %17 = load i32, ptr %10, align 4
  %.not18 = icmp eq i32 %17, 0
  br i1 %.not18, label %18, label %.sink.split

18:                                               ; preds = %16
  %19 = load i32, ptr %5, align 4
  %.not19 = icmp eq i32 %19, 0
  br i1 %.not19, label %20, label %.sink.split

20:                                               ; preds = %18
  %21 = load i32, ptr %6, align 4
  %.not20 = icmp eq i32 %21, 0
  br i1 %.not20, label %22, label %.sink.split

.sink.split:                                      ; preds = %20, %18, %16, %4
  %.sink = phi i32 [ %15, %4 ], [ %17, %16 ], [ %19, %18 ], [ %21, %20 ]
  store i32 %.sink, ptr %1, align 4
  br label %22

22:                                               ; preds = %.sink.split, %20
  %23 = load i32, ptr %11, align 4
  %.not21 = icmp eq i32 %23, 0
  br i1 %.not21, label %24, label %.sink.split25

24:                                               ; preds = %22
  %25 = load i32, ptr %12, align 4
  %.not22 = icmp eq i32 %25, 0
  br i1 %.not22, label %26, label %.sink.split25

26:                                               ; preds = %24
  %27 = load i32, ptr %7, align 4
  %.not23 = icmp eq i32 %27, 0
  br i1 %.not23, label %28, label %.sink.split25

28:                                               ; preds = %26
  %29 = load i32, ptr %8, align 4
  %.not24 = icmp eq i32 %29, 0
  br i1 %.not24, label %30, label %.sink.split25

.sink.split25:                                    ; preds = %28, %26, %24, %22
  %.sink26 = phi i32 [ %23, %22 ], [ %25, %24 ], [ %27, %26 ], [ %29, %28 ]
  store i32 %.sink26, ptr %2, align 4
  br label %30

30:                                               ; preds = %.sink.split25, %28
  call void @llvm.lifetime.end.p0(i64 8, ptr nonnull %13) #7
  call void @llvm.lifetime.end.p0(i64 4, ptr nonnull %12) #7
  call void @llvm.lifetime.end.p0(i64 4, ptr nonnull %11) #7
  call void @llvm.lifetime.end.p0(i64 4, ptr nonnull %10) #7
  call void @llvm.lifetime.end.p0(i64 4, ptr nonnull %9) #7
  call void @llvm.lifetime.end.p0(i64 4, ptr nonnull %8) #7
  call void @llvm.lifetime.end.p0(i64 4, ptr nonnull %7) #7
  call void @llvm.lifetime.end.p0(i64 4, ptr nonnull %6) #7
  call void @llvm.lifetime.end.p0(i64 4, ptr nonnull %5) #7
  ret void
}